target datalayout = "e-m:e-p270:32:32-p271:32:32-p272:64:64-i64:64-i128:128-f80:128-n8:16:32:64-S128"
target triple = "x86_64-unknown-linux-gnu"

%struct.QemuMutex = type { %union.pthread_mutex_t, i8 }
%union.pthread_mutex_t = type { %struct.__pthread_mutex_s }
%struct.__pthread_mutex_s = type { i32, i32, i32, i32, i32, i16, i16, %struct.__pthread_internal_list }
%struct.__pthread_internal_list = type { ptr, ptr }
%struct.BlockDriverState = type { i32, i8, i8, i8, i8, i8, ptr, ptr, ptr, %struct.anon.0, i8, [4096 x i8], [4096 x i8], [4096 x i8], [16 x i8], ptr, [4096 x i8], %struct.BlockLimits, i32, i32, i32, i32, [32 x i8], %union.anon, %union.anon.1, %union.anon.2, i32, [16 x %struct.anon.3], ptr, %struct.anon.4, ptr, ptr, %struct.anon.5, ptr, ptr, i32, ptr, i64, i64, %struct.QemuMutex, %struct.anon.6, %struct.Stat64, i32, i32, i32, i32, i32, i32, %struct.QemuMutex, %struct.anon.7, %struct.CoQueue, i8, i32, i8, %struct.CoMutex, ptr, ptr }
%struct.anon.0 = type { ptr }
%struct.BlockLimits = type { i32, i64, i32, i64, i32, i32, i32, i64, i32, i64, i64, i32, i8, i32, i32, i32, i32, i32, i32, i32 }
%union.anon = type { %struct.QTailQLink }
%struct.QTailQLink = type { ptr, ptr }
%union.anon.1 = type { %struct.QTailQLink }
%union.anon.2 = type { %struct.QTailQLink }
%struct.anon.3 = type { ptr }
%struct.anon.4 = type { ptr }
%struct.anon.5 = type { ptr }
%struct.anon.6 = type { ptr }
%struct.Stat64 = type { i64 }
%struct.anon.7 = type { ptr }
%struct.CoQueue = type { %struct.anon.8 }
%struct.anon.8 = type { ptr, ptr }
%struct.CoMutex = type { i32, ptr, %struct.anon.9, %struct.anon.9, i32, i32, ptr }
%struct.anon.9 = type { ptr }
%struct.MirrorBDSOpaque = type { ptr, i8, i8 }
%struct.MirrorBlockJob = type { %struct.BlockJob, ptr, ptr, ptr, ptr, ptr, ptr, ptr, i8, i32, i8, i32, i32, i32, i8, i8, i64, i64, i64, ptr, ptr, ptr, ptr, %struct.anon.14, i32, i64, ptr, i32, i64, %union.anon.15, i32, i8, i32, i32, i8, i32, i64, i8, i8 }
%struct.BlockJob = type { %struct.Job, i32, i64, %struct.RateLimit, ptr, %struct.Notifier, %struct.Notifier, %struct.Notifier, %struct.Notifier, %struct.Notifier, ptr }
%struct.Job = type { ptr, ptr, ptr, i8, i8, ptr, ptr, %struct.ProgressMeter, ptr, i32, i32, %struct.QEMUTimer, i32, i8, i8, i8, i8, i8, i8, i32, ptr, %struct.NotifierList, %struct.NotifierList, %struct.NotifierList, %struct.NotifierList, %struct.NotifierList, %struct.anon.11, ptr, %struct.anon.12 }
%struct.ProgressMeter = type { i64, i64, %struct.QemuMutex }
%struct.QEMUTimer = type { i64, ptr, ptr, ptr, ptr, i32, i32 }
%struct.NotifierList = type { %struct.anon.10 }
%struct.anon.10 = type { ptr }
%struct.anon.11 = type { ptr, ptr }
%struct.anon.12 = type { ptr, ptr }
%struct.RateLimit = type { %struct.QemuMutex, i64, i64, i64, i64, i64 }
%struct.Notifier = type { ptr, %struct.anon.13 }
%struct.anon.13 = type { ptr, ptr }
%struct.anon.14 = type { ptr, ptr }
%union.anon.15 = type { %struct.QTailQLink }
%struct.QEMUIOVector = type { ptr, i32, %union.anon.18 }
%union.anon.18 = type { %struct.anon.19 }
%struct.anon.19 = type { i32, %struct.iovec }
%struct.iovec = type { ptr, i64 }

@.str.1 = private unnamed_addr constant [23 x i8] c"../qemu/block/mirror.c\00", align 1
@__func__.should_copy_to_target = private unnamed_addr constant [22 x i8] c"should_copy_to_target\00", align 1

; Function Attrs: nounwind sspstrong uwtable
define internal zeroext i1 @should_copy_to_target(ptr noundef %s) #0 {
entry:
  %s.addr = alloca ptr, align 8
  %tmp = alloca i32, align 4
  %atomic-temp = alloca i32, align 4
  store ptr %s, ptr %s.addr, align 8
  %0 = load ptr, ptr %s.addr, align 8
  %job = getelementptr inbounds %struct.MirrorBDSOpaque, ptr %0, i32 0, i32 0
  %1 = load ptr, ptr %job, align 8
  %tobool = icmp ne ptr %1, null
  br i1 %tobool, label %land.lhs.true, label %land.end

land.lhs.true:                                    ; preds = %entry
  %2 = load ptr, ptr %s.addr, align 8
  %job1 = getelementptr inbounds %struct.MirrorBDSOpaque, ptr %2, i32 0, i32 0
  %3 = load ptr, ptr %job1, align 8
  %ret = getelementptr inbounds %struct.MirrorBlockJob, ptr %3, i32 0, i32 30
  %4 = load i32, ptr %ret, align 8
  %cmp = icmp sge i32 %4, 0
  br i1 %cmp, label %land.lhs.true2, label %land.end

land.lhs.true2:                                   ; preds = %land.lhs.true
  %5 = load ptr, ptr %s.addr, align 8
  %job3 = getelementptr inbounds %struct.MirrorBDSOpaque, ptr %5, i32 0, i32 0
  %6 = load ptr, ptr %job3, align 8
  %common = getelementptr inbounds %struct.MirrorBlockJob, ptr %6, i32 0, i32 0
  %job4 = getelementptr inbounds %struct.BlockJob, ptr %common, i32 0, i32 0
  %call = call zeroext i1 @job_is_cancelled(ptr noundef %job4)
  br i1 %call, label %land.end, label %land.rhs

land.rhs:                                         ; preds = %land.lhs.true2
  br label %while.cond

while.cond:                                       ; preds = %do.end, %land.rhs
  br i1 false, label %while.body, label %while.end

while.body:                                       ; preds = %while.cond
  br label %do.body

do.body:                                          ; preds = %while.body
  call void @g_assertion_message_expr(ptr noundef null, ptr noundef @.str.1, i32 noundef 1539, ptr noundef @__func__.should_copy_to_target, ptr noundef null) #11
  unreachable

do.end:                                           ; No predecessors!
  br label %while.cond

while.end:                                        ; preds = %while.cond
  %7 = load ptr, ptr %s.addr, align 8
  %job5 = getelementptr inbounds %struct.MirrorBDSOpaque, ptr %7, i32 0, i32 0
  %8 = load ptr, ptr %job5, align 8
  %copy_mode = getelementptr inbounds %struct.MirrorBlockJob, ptr %8, i32 0, i32 11
  %9 = load atomic i32, ptr %copy_mode monotonic, align 4
  store i32 %9, ptr %atomic-temp, align 4
  %10 = load i32, ptr %atomic-temp, align 4
  store i32 %10, ptr %tmp, align 4
  %11 = load i32, ptr %tmp, align 4
  %cmp6 = icmp eq i32 %11, 1
  br label %land.end

land.end:                                         ; preds = %while.end, %land.lhs.true2, %land.lhs.true, %entry
  %12 = phi i1 [ false, %land.lhs.true2 ], [ false, %land.lhs.true ], [ false, %entry ], [ %cmp6, %while.end ]
  ret i1 %12
}

; Function Attrs: nounwind sspstrong uwtable
define internal i32 @bdrv_mirror_top_pwritev(ptr noundef %bs, i64 noundef %offset, i64 noundef %bytes, ptr noundef %qiov, i32 noundef %flags) #0 {
entry:
  %bs.addr = alloca ptr, align 8
  %offset.addr = alloca i64, align 8
  %bytes.addr = alloca i64, align 8
  %qiov.addr = alloca ptr, align 8
  %flags.addr = alloca i32, align 4
  %bounce_qiov = alloca %struct.QEMUIOVector, align 8
  %bounce_buf = alloca ptr, align 8
  %ret = alloca i32, align 4
  %copy_to_target = alloca i8, align 1
  store ptr %bs, ptr %bs.addr, align 8
  store i64 %offset, ptr %offset.addr, align 8
  store i64 %bytes, ptr %bytes.addr, align 8
  store ptr %qiov, ptr %qiov.addr, align 8
  store i32 %flags, ptr %flags.addr, align 4
  store i32 0, ptr %ret, align 4
  %0 = load ptr, ptr %bs.addr, align 8
  %opaque = getelementptr inbounds %struct.BlockDriverState, ptr %0, i32 0, i32 7
  %1 = load ptr, ptr %opaque, align 8
  %call = call zeroext i1 @should_copy_to_target(ptr noundef %1)
  %frombool = zext i1 %call to i8
  store i8 %frombool, ptr %copy_to_target, align 1
  %2 = load i8, ptr %copy_to_target, align 1
  %tobool = trunc i8 %2 to i1
  br i1 %tobool, label %if.then, label %if.end

if.then:                                          ; preds = %entry
  %3 = load ptr, ptr %bs.addr, align 8
  %4 = load i64, ptr %bytes.addr, align 8
  %call1 = call ptr @qemu_blockalign(ptr noundef %3, i64 noundef %4)
  store ptr %call1, ptr %bounce_buf, align 8
  %5 = load ptr, ptr %qiov.addr, align 8
  %iov = getelementptr inbounds %struct.QEMUIOVector, ptr %5, i32 0, i32 0
  %6 = load ptr, ptr %iov, align 8
  %7 = load ptr, ptr %qiov.addr, align 8
  %niov = getelementptr inbounds %struct.QEMUIOVector, ptr %7, i32 0, i32 1
  %8 = load i32, ptr %niov, align 8
  %9 = load ptr, ptr %bounce_buf, align 8
  %10 = load i64, ptr %bytes.addr, align 8
  %call2 = call i64 @iov_to_buf_full(ptr noundef %6, i32 noundef %8, i64 noundef 0, ptr noundef %9, i64 noundef %10)
  call void @qemu_iovec_init(ptr noundef %bounce_qiov, i32 noundef 1)
  %11 = load ptr, ptr %bounce_buf, align 8
  %12 = load i64, ptr %bytes.addr, align 8
  call void @qemu_iovec_add(ptr noundef %bounce_qiov, ptr noundef %11, i64 noundef %12)
  store ptr %bounce_qiov, ptr %qiov.addr, align 8
  %13 = load i32, ptr %flags.addr, align 4
  %and = and i32 %13, -9
  store i32 %and, ptr %flags.addr, align 4
  br label %if.end

if.end:                                           ; preds = %if.then, %entry
  %14 = load ptr, ptr %bs.addr, align 8
  %15 = load i8, ptr %copy_to_target, align 1
  %tobool3 = trunc i8 %15 to i1
  %16 = load i64, ptr %offset.addr, align 8
  %17 = load i64, ptr %bytes.addr, align 8
  %18 = load ptr, ptr %qiov.addr, align 8
  %19 = load i32, ptr %flags.addr, align 4
  %call4 = call i32 @bdrv_mirror_top_do_write(ptr noundef %14, i32 noundef 0, i1 noundef zeroext %tobool3, i64 noundef %16, i64 noundef %17, ptr noundef %18, i32 noundef %19)
  store i32 %call4, ptr %ret, align 4
  %20 = load i8, ptr %copy_to_target, align 1
  %tobool5 = trunc i8 %20 to i1
  br i1 %tobool5, label %if.then6, label %if.end7

if.then6:                                         ; preds = %if.end
  call void @qemu_iovec_destroy(ptr noundef %bounce_qiov)
  %21 = load ptr, ptr %bounce_buf, align 8
  call void @qemu_vfree(ptr noundef %21)
  br label %if.end7

if.end7:                                          ; preds = %if.then6, %if.end
  %22 = load i32, ptr %ret, align 4
  ret i32 %22
}