; Function Attrs: nounwind sspstrong uwtable
define internal i32 @bdrv_mirror_top_pwritev(ptr noundef %bs, i64 noundef %offset, i64 noundef %bytes, ptr noundef %qiov, i32 noundef %flags) #0 {
entry:
  %bounce_qiov = alloca %struct.QEMUIOVector, align 8
  %opaque = getelementptr inbounds nuw i8, ptr %bs, i64 24
  %0 = load ptr, ptr %opaque, align 8
  %1 = load ptr, ptr %0, align 8
  %tobool.not.i = icmp eq ptr %1, null
  br i1 %tobool.not.i, label %if.end.thread, label %land.lhs.true.i

land.lhs.true.i:                                  ; preds = %entry
  %ret.i = getelementptr inbounds nuw i8, ptr %1, i64 736
  %2 = load i32, ptr %ret.i, align 8
  %cmp.i = icmp sgt i32 %2, -1
  br i1 %cmp.i, label %land.lhs.true2.i, label %if.end.thread

land.lhs.true2.i:                                 ; preds = %land.lhs.true.i
  %call.i = tail call zeroext i1 @job_is_cancelled(ptr noundef nonnull %1) #12
  br i1 %call.i, label %if.end.thread, label %should_copy_to_target.exit

should_copy_to_target.exit:                       ; preds = %land.lhs.true2.i
  %3 = load ptr, ptr %0, align 8
  %copy_mode.i = getelementptr inbounds nuw i8, ptr %3, i64 588
  %4 = load atomic i32, ptr %copy_mode.i monotonic, align 4
  %cmp6.i = icmp eq i32 %4, 1
  br i1 %cmp6.i, label %if.then6, label %if.end.thread

if.end.thread:                                    ; preds = %should_copy_to_target.exit, %land.lhs.true2.i, %land.lhs.true.i, %entry
  %call416 = tail call i32 @bdrv_mirror_top_do_write(ptr noundef nonnull %bs, i32 noundef 0, i1 noundef zeroext false, i64 noundef %offset, i64 noundef %bytes, ptr noundef %qiov, i32 noundef %flags)
  br label %if.end7

if.then6:                                         ; preds = %should_copy_to_target.exit
  %call1 = tail call ptr @qemu_blockalign(ptr noundef nonnull %bs, i64 noundef %bytes) #12
  %5 = load ptr, ptr %qiov, align 8
  %niov = getelementptr inbounds nuw i8, ptr %qiov, i64 8
  %6 = load i32, ptr %niov, align 8
  %call2 = tail call i64 @iov_to_buf_full(ptr noundef %5, i32 noundef %6, i64 noundef 0, ptr noundef %call1, i64 noundef %bytes) #12
  call void @qemu_iovec_init(ptr noundef nonnull %bounce_qiov, i32 noundef 1) #12
  call void @qemu_iovec_add(ptr noundef nonnull %bounce_qiov, ptr noundef %call1, i64 noundef %bytes) #12
  %and = and i32 %flags, -9
  %call4 = call i32 @bdrv_mirror_top_do_write(ptr noundef nonnull %bs, i32 noundef 0, i1 noundef zeroext true, i64 noundef %offset, i64 noundef %bytes, ptr noundef nonnull %bounce_qiov, i32 noundef %and)
  call void @qemu_iovec_destroy(ptr noundef nonnull %bounce_qiov) #12
  call void @qemu_vfree(ptr noundef %call1) #12
  br label %if.end7

if.end7:                                          ; preds = %if.end.thread, %if.then6
  %call417 = phi i32 [ %call416, %if.end.thread ], [ %call4, %if.then6 ]
  ret i32 %call417
}